target datalayout = "e-m:e-p270:32:32-p271:32:32-p272:64:64-i64:64-i128:128-f80:128-n8:16:32:64-S128"
target triple = "x86_64-pc-linux-gnu"

@.str.29 = private unnamed_addr constant [24 x i8] c"label cannot be nullptr\00", align 1

; Function Attrs: mustprogress uwtable
define void @_ZN8LightGBM8Metadata8SetLabelEPKfi(ptr noundef nonnull align 8 dereferenceable(300) %0, ptr noundef %1, i32 noundef %2) #8 align 2 {
  %4 = alloca ptr, align 8
  %5 = alloca ptr, align 8
  %6 = alloca i32, align 4
  store ptr %0, ptr %4, align 8, !tbaa !4
  store ptr %1, ptr %5, align 8, !tbaa !127
  store i32 %2, ptr %6, align 4, !tbaa !103
  %7 = load ptr, ptr %4, align 8
  %8 = load ptr, ptr %5, align 8, !tbaa !127
  %9 = icmp eq ptr %8, null
  br i1 %9, label %10, label %11

10:                                               ; preds = %3
  call void (ptr, ...) @_ZN8LightGBM3Log5FatalEPKcz(ptr noundef @.str.29)
  br label %11

11:                                               ; preds = %10, %3
  %12 = load ptr, ptr %5, align 8, !tbaa !127
  %13 = load ptr, ptr %5, align 8, !tbaa !127
  %14 = load i32, ptr %6, align 4, !tbaa !103
  %15 = sext i32 %14 to i64
  %16 = getelementptr inbounds float, ptr %13, i64 %15
  call void @_ZN8LightGBM8Metadata21SetLabelsFromIteratorIPKfEEvT_S4_(ptr noundef nonnull align 8 dereferenceable(300) %7, ptr noundef %12, ptr noundef %16)
  ret void
}