; Function Attrs: mustprogress uwtable
define void @_ZN8LightGBM8Metadata8SetLabelEPKfi(ptr noundef nonnull align 8 dereferenceable(300) %0, ptr noundef %1, i32 noundef %2) local_unnamed_addr #8 align 2 {
  %4 = icmp eq ptr %1, null
  br i1 %4, label %.split5, label %.split

.split5:                                          ; preds = %3
  tail call void (ptr, ...) @_ZN8LightGBM3Log5FatalEPKcz(ptr noundef nonnull @.str.29)
  br label %.split

.split:                                           ; preds = %3, %.split5
  %.sink7 = phi ptr [ null, %.split5 ], [ %1, %3 ]
  %5 = sext i32 %2 to i64
  %6 = getelementptr inbounds float, ptr %.sink7, i64 %5
  tail call void @_ZN8LightGBM8Metadata21SetLabelsFromIteratorIPKfEEvT_S4_(ptr noundef nonnull align 8 dereferenceable(300) %0, ptr noundef %.sink7, ptr noundef %6)
  ret void
}